; Function Attrs: mustprogress uwtable
define hidden void @_ZN4cvc58internal6theory18checkWithSubsolverENS0_12NodeTemplateILb1EEERKNS1_18SubsolverSetupInfoEbm(ptr dead_on_unwind noalias writable sret(%"class.cvc5::internal::Result") align 8 %0, ptr noundef readonly captures(none) %1, ptr noundef nonnull readonly align 8 captures(none) dereferenceable(32) %2, i1 noundef zeroext %3, i64 noundef %4) local_unnamed_addr #3 personality ptr @__gxx_personality_v0 {
  %6 = alloca %"class.std::vector.401", align 8
  %7 = alloca %"class.std::vector.401", align 8
  %8 = alloca %"class.cvc5::internal::NodeTemplate", align 8
  call void @llvm.lifetime.start.p0(i64 24, ptr nonnull %6) #20
  call void @llvm.memset.p0.i64(ptr noundef nonnull align 8 dereferenceable(24) %6, i8 0, i64 24, i1 false)
  call void @llvm.lifetime.start.p0(i64 24, ptr nonnull %7) #20
  call void @llvm.memset.p0.i64(ptr noundef nonnull align 8 dereferenceable(24) %7, i8 0, i64 24, i1 false)
  %9 = load ptr, ptr %1, align 8, !tbaa !15
  store ptr %9, ptr %8, align 8, !tbaa !15
  %10 = load i64, ptr %9, align 8
  %11 = lshr i64 %10, 40
  %12 = trunc nuw nsw i64 %11 to i32
  %13 = and i32 %12, 1048575
  %14 = icmp samesign ult i32 %13, 1048574
  br i1 %14, label %15, label %20, !prof !13

15:                                               ; preds = %5
  %16 = add i64 %10, 1099511627776
  %17 = and i64 %16, 1152920405095219200
  %18 = and i64 %10, -1152920405095219201
  %19 = or disjoint i64 %17, %18
  store i64 %19, ptr %9, align 8
  br label %_ZN4cvc58internal12NodeTemplateILb1EEC2ERKS2_.exit

20:                                               ; preds = %5
  %21 = icmp eq i32 %13, 1048574
  br i1 %21, label %22, label %_ZN4cvc58internal12NodeTemplateILb1EEC2ERKS2_.exit, !prof !14

22:                                               ; preds = %20
  %23 = or i64 %10, 1152920405095219200
  store i64 %23, ptr %9, align 8
  invoke void @_ZN4cvc58internal4expr9NodeValue20markRefCountMaxedOutEv(ptr noundef nonnull align 8 dereferenceable(24) %9)
          to label %_ZN4cvc58internal12NodeTemplateILb1EEC2ERKS2_.exit unwind label %62

_ZN4cvc58internal12NodeTemplateILb1EEC2ERKS2_.exit: ; preds = %20, %15, %22
  invoke void @_ZN4cvc58internal6theory18checkWithSubsolverENS0_12NodeTemplateILb1EEERKSt6vectorIS3_SaIS3_EERS6_RKNS1_18SubsolverSetupInfoEbm(ptr dead_on_unwind writable sret(%"class.cvc5::internal::Result") align 8 %0, ptr noundef nonnull %8, ptr noundef nonnull align 8 dereferenceable(24) %6, ptr noundef nonnull align 8 dereferenceable(24) %7, ptr noundef nonnull align 8 dereferenceable(32) %2, i1 noundef zeroext %3, i64 noundef %4)
          to label %24 unwind label %64

24:                                               ; preds = %_ZN4cvc58internal12NodeTemplateILb1EEC2ERKS2_.exit
  %25 = load ptr, ptr %8, align 8, !tbaa !15
  %26 = load i64, ptr %25, align 8
  %27 = and i64 %26, 1152920405095219200
  %.not.i.i = icmp eq i64 %27, 1152920405095219200
  br i1 %.not.i.i, label %_ZN4cvc58internal12NodeTemplateILb1EED2Ev.exit, label %28, !prof !14

28:                                               ; preds = %24
  %29 = add i64 %26, 1152920405095219200
  %30 = and i64 %29, 1152920405095219200
  %31 = and i64 %26, -1152920405095219201
  %32 = or disjoint i64 %30, %31
  store i64 %32, ptr %25, align 8
  %33 = icmp eq i64 %30, 0
  br i1 %33, label %34, label %_ZN4cvc58internal12NodeTemplateILb1EED2Ev.exit, !prof !14

34:                                               ; preds = %28
  invoke void @_ZN4cvc58internal4expr9NodeValue15markForDeletionEv(ptr noundef nonnull align 8 dereferenceable(24) %25)
          to label %_ZN4cvc58internal12NodeTemplateILb1EED2Ev.exit unwind label %35

35:                                               ; preds = %34
  %36 = landingpad { ptr, i32 }
          catch ptr null
  %37 = extractvalue { ptr, i32 } %36, 0
  call void @__clang_call_terminate(ptr %37) #21
  unreachable

_ZN4cvc58internal12NodeTemplateILb1EED2Ev.exit:   ; preds = %24, %28, %34
  %38 = load ptr, ptr %7, align 8, !tbaa !40
  %39 = getelementptr inbounds nuw i8, ptr %7, i64 8
  %40 = load ptr, ptr %39, align 8, !tbaa !43
  %.not4.i.i.i.i = icmp eq ptr %38, %40
  br i1 %.not4.i.i.i.i, label %_ZSt8_DestroyIPN4cvc58internal12NodeTemplateILb1EEES3_EvT_S5_RSaIT0_E.exit.i, label %.lr.ph.i.i.i.i

.lr.ph.i.i.i.i:                                   ; preds = %_ZN4cvc58internal12NodeTemplateILb1EED2Ev.exit, %_ZSt8_DestroyIN4cvc58internal12NodeTemplateILb1EEEEvPT_.exit.i.i.i.i
  %.05.i.i.i.i = phi ptr [ %54, %_ZSt8_DestroyIN4cvc58internal12NodeTemplateILb1EEEEvPT_.exit.i.i.i.i ], [ %38, %_ZN4cvc58internal12NodeTemplateILb1EED2Ev.exit ]
  %41 = load ptr, ptr %.05.i.i.i.i, align 8, !tbaa !15
  %42 = load i64, ptr %41, align 8
  %43 = and i64 %42, 1152920405095219200
  %.not.i.i.i.i.i.i.i = icmp eq i64 %43, 1152920405095219200
  br i1 %.not.i.i.i.i.i.i.i, label %_ZSt8_DestroyIN4cvc58internal12NodeTemplateILb1EEEEvPT_.exit.i.i.i.i, label %44, !prof !14

44:                                               ; preds = %.lr.ph.i.i.i.i
  %45 = add i64 %42, 1152920405095219200
  %46 = and i64 %45, 1152920405095219200
  %47 = and i64 %42, -1152920405095219201
  %48 = or disjoint i64 %46, %47
  store i64 %48, ptr %41, align 8
  %49 = icmp eq i64 %46, 0
  br i1 %49, label %50, label %_ZSt8_DestroyIN4cvc58internal12NodeTemplateILb1EEEEvPT_.exit.i.i.i.i, !prof !14

50:                                               ; preds = %44
  invoke void @_ZN4cvc58internal4expr9NodeValue15markForDeletionEv(ptr noundef nonnull align 8 dereferenceable(24) %41)
          to label %_ZSt8_DestroyIN4cvc58internal12NodeTemplateILb1EEEEvPT_.exit.i.i.i.i unwind label %51

51:                                               ; preds = %50
  %52 = landingpad { ptr, i32 }
          catch ptr null
  %53 = extractvalue { ptr, i32 } %52, 0
  call void @__clang_call_terminate(ptr %53) #21
  unreachable

_ZSt8_DestroyIN4cvc58internal12NodeTemplateILb1EEEEvPT_.exit.i.i.i.i: ; preds = %50, %44, %.lr.ph.i.i.i.i
  %54 = getelementptr inbounds nuw i8, ptr %.05.i.i.i.i, i64 8
  %.not.i.i.i.i = icmp eq ptr %54, %40
  br i1 %.not.i.i.i.i, label %_ZSt8_DestroyIPN4cvc58internal12NodeTemplateILb1EEES3_EvT_S5_RSaIT0_E.exitthread-pre-split.i, label %.lr.ph.i.i.i.i, !llvm.loop !44

_ZSt8_DestroyIPN4cvc58internal12NodeTemplateILb1EEES3_EvT_S5_RSaIT0_E.exitthread-pre-split.i: ; preds = %_ZSt8_DestroyIN4cvc58internal12NodeTemplateILb1EEEEvPT_.exit.i.i.i.i
  %.pr.i = load ptr, ptr %7, align 8, !tbaa !40
  br label %_ZSt8_DestroyIPN4cvc58internal12NodeTemplateILb1EEES3_EvT_S5_RSaIT0_E.exit.i

_ZSt8_DestroyIPN4cvc58internal12NodeTemplateILb1EEES3_EvT_S5_RSaIT0_E.exit.i: ; preds = %_ZSt8_DestroyIPN4cvc58internal12NodeTemplateILb1EEES3_EvT_S5_RSaIT0_E.exitthread-pre-split.i, %_ZN4cvc58internal12NodeTemplateILb1EED2Ev.exit
  %55 = phi ptr [ %.pr.i, %_ZSt8_DestroyIPN4cvc58internal12NodeTemplateILb1EEES3_EvT_S5_RSaIT0_E.exitthread-pre-split.i ], [ %38, %_ZN4cvc58internal12NodeTemplateILb1EED2Ev.exit ]
  %.not.i.i.i = icmp eq ptr %55, null
  br i1 %.not.i.i.i, label %_ZNSt6vectorIN4cvc58internal12NodeTemplateILb1EEESaIS3_EED2Ev.exit16, label %56

56:                                               ; preds = %_ZSt8_DestroyIPN4cvc58internal12NodeTemplateILb1EEES3_EvT_S5_RSaIT0_E.exit.i
  %57 = getelementptr inbounds nuw i8, ptr %7, i64 16
  %58 = load ptr, ptr %57, align 8, !tbaa !46
  %59 = ptrtoint ptr %58 to i64
  %60 = ptrtoint ptr %55 to i64
  %61 = sub i64 %59, %60
  call void @_ZdlPvm(ptr noundef nonnull %55, i64 noundef %61) #22
  br label %_ZNSt6vectorIN4cvc58internal12NodeTemplateILb1EEESaIS3_EED2Ev.exit16

_ZNSt6vectorIN4cvc58internal12NodeTemplateILb1EEESaIS3_EED2Ev.exit16: ; preds = %_ZSt8_DestroyIPN4cvc58internal12NodeTemplateILb1EEES3_EvT_S5_RSaIT0_E.exit.i, %56
  call void @llvm.lifetime.end.p0(i64 24, ptr nonnull %7) #20
  call void @llvm.lifetime.end.p0(i64 24, ptr nonnull %6) #20
  ret void

62:                                               ; preds = %22
  %63 = landingpad { ptr, i32 }
          cleanup
  br label %66

64:                                               ; preds = %_ZN4cvc58internal12NodeTemplateILb1EEC2ERKS2_.exit
  %65 = landingpad { ptr, i32 }
          cleanup
  call void @_ZN4cvc58internal12NodeTemplateILb1EED2Ev(ptr noundef nonnull align 8 dereferenceable(8) %8) #20
  br label %66

66:                                               ; preds = %64, %62
  %.pn = phi { ptr, i32 } [ %65, %64 ], [ %63, %62 ]
  call void @_ZNSt6vectorIN4cvc58internal12NodeTemplateILb1EEESaIS3_EED2Ev(ptr noundef nonnull align 8 dereferenceable(24) %7) #20
  call void @llvm.lifetime.end.p0(i64 24, ptr nonnull %7) #20
  call void @_ZNSt6vectorIN4cvc58internal12NodeTemplateILb1EEESaIS3_EED2Ev(ptr noundef nonnull align 8 dereferenceable(24) %6) #20
  call void @llvm.lifetime.end.p0(i64 24, ptr nonnull %6) #20
  resume { ptr, i32 } %.pn
}